; ModuleID = '39/1881.c'
source_filename = "39/1881.c"
target datalayout = "e-m:e-p270:32:32-p271:32:32-p272:64:64-i64:64-f80:128-n8:16:32:64-S128"
target triple = "x86_64-pc-linux-gnu"

%struct.student = type { [50 x i8], i32, i32, i8, i8, i32, i32, %struct.student* }

@.str = private unnamed_addr constant [3 x i8] c"%d\00", align 1
@.str.1 = private unnamed_addr constant [18 x i8] c"%s %d %d %c %c %d\00", align 1
@.str.2 = private unnamed_addr constant [4 x i8] c"%s\0A\00", align 1
@.str.3 = private unnamed_addr constant [4 x i8] c"%d\0A\00", align 1

; Function Attrs: noinline nounwind uwtable
define dso_local void @main() #0 {
  %1 = alloca i32, align 4
  %2 = alloca i32, align 4
  %3 = alloca i32, align 4
  %4 = alloca %struct.student*, align 8
  %5 = alloca %struct.student*, align 8
  %6 = alloca %struct.student*, align 8
  store i32 0, i32* %3, align 4
  %7 = call i32 (i8*, ...) @__isoc99_scanf(i8* getelementptr inbounds ([3 x i8], [3 x i8]* @.str, i64 0, i64 0), i32* %1)
  %8 = call noalias i8* @malloc(i64 80) #3
  %9 = bitcast i8* %8 to %struct.student*
  store %struct.student* %9, %struct.student** %4, align 8
  %10 = load %struct.student*, %struct.student** %4, align 8
  %11 = getelementptr inbounds %struct.student, %struct.student* %10, i32 0, i32 7
  store %struct.student* null, %struct.student** %11, align 8
  %12 = load %struct.student*, %struct.student** %4, align 8
  store %struct.student* %12, %struct.student** %5, align 8
  store i32 0, i32* %2, align 4
  br label %13

13:                                               ; preds = %129, %0
  %14 = load i32, i32* %2, align 4
  %15 = load i32, i32* %1, align 4
  %16 = icmp slt i32 %14, %15
  br i1 %16, label %17, label %132

17:                                               ; preds = %13
  %18 = call noalias i8* @malloc(i64 80) #3
  %19 = bitcast i8* %18 to %struct.student*
  store %struct.student* %19, %struct.student** %6, align 8
  %20 = load %struct.student*, %struct.student** %6, align 8
  %21 = getelementptr inbounds %struct.student, %struct.student* %20, i32 0, i32 7
  store %struct.student* null, %struct.student** %21, align 8
  %22 = load %struct.student*, %struct.student** %6, align 8
  %23 = getelementptr inbounds %struct.student, %struct.student* %22, i32 0, i32 0
  %24 = getelementptr inbounds [50 x i8], [50 x i8]* %23, i64 0, i64 0
  %25 = load %struct.student*, %struct.student** %6, align 8
  %26 = getelementptr inbounds %struct.student, %struct.student* %25, i32 0, i32 1
  %27 = load %struct.student*, %struct.student** %6, align 8
  %28 = getelementptr inbounds %struct.student, %struct.student* %27, i32 0, i32 2
  %29 = load %struct.student*, %struct.student** %6, align 8
  %30 = getelementptr inbounds %struct.student, %struct.student* %29, i32 0, i32 3
  %31 = load %struct.student*, %struct.student** %6, align 8
  %32 = getelementptr inbounds %struct.student, %struct.student* %31, i32 0, i32 4
  %33 = load %struct.student*, %struct.student** %6, align 8
  %34 = getelementptr inbounds %struct.student, %struct.student* %33, i32 0, i32 5
  %35 = call i32 (i8*, ...) @__isoc99_scanf(i8* getelementptr inbounds ([18 x i8], [18 x i8]* @.str.1, i64 0, i64 0), i8* %24, i32* %26, i32* %28, i8* %30, i8* %32, i32* %34)
  %36 = load %struct.student*, %struct.student** %6, align 8
  %37 = getelementptr inbounds %struct.student, %struct.student* %36, i32 0, i32 6
  store i32 0, i32* %37, align 4
  %38 = load %struct.student*, %struct.student** %6, align 8
  %39 = getelementptr inbounds %struct.student, %struct.student* %38, i32 0, i32 1
  %40 = load i32, i32* %39, align 4
  %41 = icmp sgt i32 %40, 80
  br i1 %41, label %42, label %54

42:                                               ; preds = %17
  %43 = load %struct.student*, %struct.student** %6, align 8
  %44 = getelementptr inbounds %struct.student, %struct.student* %43, i32 0, i32 5
  %45 = load i32, i32* %44, align 8
  %46 = icmp sgt i32 %45, 0
  br i1 %46, label %47, label %54

47:                                               ; preds = %42
  %48 = load %struct.student*, %struct.student** %6, align 8
  %49 = getelementptr inbounds %struct.student, %struct.student* %48, i32 0, i32 6
  %50 = load i32, i32* %49, align 4
  %51 = add nsw i32 %50, 8000
  %52 = load %struct.student*, %struct.student** %6, align 8
  %53 = getelementptr inbounds %struct.student, %struct.student* %52, i32 0, i32 6
  store i32 %51, i32* %53, align 4
  br label %54

54:                                               ; preds = %47, %42, %17
  %55 = load %struct.student*, %struct.student** %6, align 8
  %56 = getelementptr inbounds %struct.student, %struct.student* %55, i32 0, i32 1
  %57 = load i32, i32* %56, align 4
  %58 = icmp sgt i32 %57, 85
  br i1 %58, label %59, label %71

59:                                               ; preds = %54
  %60 = load %struct.student*, %struct.student** %6, align 8
  %61 = getelementptr inbounds %struct.student, %struct.student* %60, i32 0, i32 2
  %62 = load i32, i32* %61, align 8
  %63 = icmp sgt i32 %62, 80
  br i1 %63, label %64, label %71

64:                                               ; preds = %59
  %65 = load %struct.student*, %struct.student** %6, align 8
  %66 = getelementptr inbounds %struct.student, %struct.student* %65, i32 0, i32 6
  %67 = load i32, i32* %66, align 4
  %68 = add nsw i32 %67, 4000
  %69 = load %struct.student*, %struct.student** %6, align 8
  %70 = getelementptr inbounds %struct.student, %struct.student* %69, i32 0, i32 6
  store i32 %68, i32* %70, align 4
  br label %71

71:                                               ; preds = %64, %59, %54
  %72 = load %struct.student*, %struct.student** %6, align 8
  %73 = getelementptr inbounds %struct.student, %struct.student* %72, i32 0, i32 1
  %74 = load i32, i32* %73, align 4
  %75 = icmp sgt i32 %74, 90
  br i1 %75, label %76, label %83

76:                                               ; preds = %71
  %77 = load %struct.student*, %struct.student** %6, align 8
  %78 = getelementptr inbounds %struct.student, %struct.student* %77, i32 0, i32 6
  %79 = load i32, i32* %78, align 4
  %80 = add nsw i32 %79, 2000
  %81 = load %struct.student*, %struct.student** %6, align 8
  %82 = getelementptr inbounds %struct.student, %struct.student* %81, i32 0, i32 6
  store i32 %80, i32* %82, align 4
  br label %83

83:                                               ; preds = %76, %71
  %84 = load %struct.student*, %struct.student** %6, align 8
  %85 = getelementptr inbounds %struct.student, %struct.student* %84, i32 0, i32 1
  %86 = load i32, i32* %85, align 4
  %87 = icmp sgt i32 %86, 85
  br i1 %87, label %88, label %101

88:                                               ; preds = %83
  %89 = load %struct.student*, %struct.student** %6, align 8
  %90 = getelementptr inbounds %struct.student, %struct.student* %89, i32 0, i32 4
  %91 = load i8, i8* %90, align 1
  %92 = sext i8 %91 to i32
  %93 = icmp eq i32 %92, 89
  br i1 %93, label %94, label %101

94:                                               ; preds = %88
  %95 = load %struct.student*, %struct.student** %6, align 8
  %96 = getelementptr inbounds %struct.student, %struct.student* %95, i32 0, i32 6
  %97 = load i32, i32* %96, align 4
  %98 = add nsw i32 %97, 1000
  %99 = load %struct.student*, %struct.student** %6, align 8
  %100 = getelementptr inbounds %struct.student, %struct.student* %99, i32 0, i32 6
  store i32 %98, i32* %100, align 4
  br label %101

101:                                              ; preds = %94, %88, %83
  %102 = load %struct.student*, %struct.student** %6, align 8
  %103 = getelementptr inbounds %struct.student, %struct.student* %102, i32 0, i32 2
  %104 = load i32, i32* %103, align 8
  %105 = icmp sgt i32 %104, 80
  br i1 %105, label %106, label %119

106:                                              ; preds = %101
  %107 = load %struct.student*, %struct.student** %6, align 8
  %108 = getelementptr inbounds %struct.student, %struct.student* %107, i32 0, i32 3
  %109 = load i8, i8* %108, align 4
  %110 = sext i8 %109 to i32
  %111 = icmp eq i32 %110, 89
  br i1 %111, label %112, label %119

112:                                              ; preds = %106
  %113 = load %struct.student*, %struct.student** %6, align 8
  %114 = getelementptr inbounds %struct.student, %struct.student* %113, i32 0, i32 6
  %115 = load i32, i32* %114, align 4
  %116 = add nsw i32 %115, 850
  %117 = load %struct.student*, %struct.student** %6, align 8
  %118 = getelementptr inbounds %struct.student, %struct.student* %117, i32 0, i32 6
  store i32 %116, i32* %118, align 4
  br label %119

119:                                              ; preds = %112, %106, %101
  %120 = load i32, i32* %3, align 4
  %121 = load %struct.student*, %struct.student** %6, align 8
  %122 = getelementptr inbounds %struct.student, %struct.student* %121, i32 0, i32 6
  %123 = load i32, i32* %122, align 4
  %124 = add nsw i32 %120, %123
  store i32 %124, i32* %3, align 4
  %125 = load %struct.student*, %struct.student** %6, align 8
  %126 = load %struct.student*, %struct.student** %5, align 8
  %127 = getelementptr inbounds %struct.student, %struct.student* %126, i32 0, i32 7
  store %struct.student* %125, %struct.student** %127, align 8
  %128 = load %struct.student*, %struct.student** %6, align 8
  store %struct.student* %128, %struct.student** %5, align 8
  br label %129

129:                                              ; preds = %119
  %130 = load i32, i32* %2, align 4
  %131 = add nsw i32 %130, 1
  store i32 %131, i32* %2, align 4
  br label %13

132:                                              ; preds = %13
  %133 = load %struct.student*, %struct.student** %4, align 8
  %134 = getelementptr inbounds %struct.student, %struct.student* %133, i32 0, i32 7
  %135 = load %struct.student*, %struct.student** %134, align 8
  store %struct.student* %135, %struct.student** %5, align 8
  %136 = load %struct.student*, %struct.student** %5, align 8
  %137 = getelementptr inbounds %struct.student, %struct.student* %136, i32 0, i32 7
  %138 = load %struct.student*, %struct.student** %137, align 8
  store %struct.student* %138, %struct.student** %6, align 8
  br label %139

139:                                              ; preds = %154, %132
  %140 = load %struct.student*, %struct.student** %6, align 8
  %141 = icmp ne %struct.student* %140, null
  br i1 %141, label %142, label %161

142:                                              ; preds = %139
  %143 = load %struct.student*, %struct.student** %5, align 8
  %144 = getelementptr inbounds %struct.student, %struct.student* %143, i32 0, i32 6
  %145 = load i32, i32* %144, align 4
  %146 = load %struct.student*, %struct.student** %6, align 8
  %147 = getelementptr inbounds %struct.student, %struct.student* %146, i32 0, i32 6
  %148 = load i32, i32* %147, align 4
  %149 = icmp slt i32 %145, %148
  br i1 %149, label %150, label %154

150:                                              ; preds = %142
  %151 = load %struct.student*, %struct.student** %6, align 8
  %152 = load %struct.student*, %struct.student** %4, align 8
  %153 = getelementptr inbounds %struct.student, %struct.student* %152, i32 0, i32 7
  store %struct.student* %151, %struct.student** %153, align 8
  br label %154

154:                                              ; preds = %150, %142
  %155 = load %struct.student*, %struct.student** %6, align 8
  %156 = getelementptr inbounds %struct.student, %struct.student* %155, i32 0, i32 7
  %157 = load %struct.student*, %struct.student** %156, align 8
  store %struct.student* %157, %struct.student** %6, align 8
  %158 = load %struct.student*, %struct.student** %4, align 8
  %159 = getelementptr inbounds %struct.student, %struct.student* %158, i32 0, i32 7
  %160 = load %struct.student*, %struct.student** %159, align 8
  store %struct.student* %160, %struct.student** %5, align 8
  br label %139

161:                                              ; preds = %139
  %162 = load %struct.student*, %struct.student** %4, align 8
  %163 = getelementptr inbounds %struct.student, %struct.student* %162, i32 0, i32 7
  %164 = load %struct.student*, %struct.student** %163, align 8
  store %struct.student* %164, %struct.student** %5, align 8
  %165 = load %struct.student*, %struct.student** %5, align 8
  %166 = getelementptr inbounds %struct.student, %struct.student* %165, i32 0, i32 0
  %167 = getelementptr inbounds [50 x i8], [50 x i8]* %166, i64 0, i64 0
  %168 = call i32 (i8*, ...) @printf(i8* getelementptr inbounds ([4 x i8], [4 x i8]* @.str.2, i64 0, i64 0), i8* %167)
  %169 = load %struct.student*, %struct.student** %5, align 8
  %170 = getelementptr inbounds %struct.student, %struct.student* %169, i32 0, i32 6
  %171 = load i32, i32* %170, align 4
  %172 = call i32 (i8*, ...) @printf(i8* getelementptr inbounds ([4 x i8], [4 x i8]* @.str.3, i64 0, i64 0), i32 %171)
  %173 = load i32, i32* %3, align 4
  %174 = call i32 (i8*, ...) @printf(i8* getelementptr inbounds ([4 x i8], [4 x i8]* @.str.3, i64 0, i64 0), i32 %173)
  ret void
}

declare dso_local i32 @__isoc99_scanf(i8*, ...) #1

; Function Attrs: nounwind
declare dso_local noalias i8* @malloc(i64) #2

declare dso_local i32 @printf(i8*, ...) #1


!llvm.module.flags = !{!0}
!llvm.ident = !{!1}

!0 = !{i32 1, !"wchar_size", i32 4}
!1 = !{!"clang version 10.0.0-4ubuntu1 "}
